target datalayout = "e-m:e-p270:32:32-p271:32:32-p272:64:64-i64:64-i128:128-f80:128-n8:16:32:64-S128"
target triple = "x86_64-pc-linux-gnu"

%struct.LLVMIntrinsics = type { i32, i32, i32, i32, i32, i32, i32, i32, i32, i32, i32, i32, i32, i32, i32, i32, i32, i32, i32, i32, i32, i32, i32, i32, i32, i32, i32, i32, i32, i32, i32, i32, i32, i32, i32, i32, i32, i32, i32, i32, i32, i32, i32, i32, i32, i32, i32, i32, i32, i32, i32, i32, i32, i32, i32, i32, i32, i32, i32, i32, i32, i32, i32, i32, i32, i32, i32, i32, i32, i32, i32, i32, i32, i32, i32, i32, i32, i32, i32, i32, i32, i32, i32, i32, i32, i32, i32, i32, i32, i32, i32, i32, i32, i32 }
%struct.BEValue = type { i8, i32, ptr, ptr, ptr }
%struct.Expr_ = type { ptr, %union.SourceSpan, i16, %union.anon.29 }
%union.SourceSpan = type { i64 }
%union.anon.29 = type { %struct.ExprAnySwitch }
%struct.ExprAnySwitch = type { i8, %union.anon.31 }
%union.anon.31 = type { %struct.anon.32 }
%struct.anon.32 = type { ptr, %union.SourceSpan, ptr }
%struct.ExprCall = type { %union.anon.33, i32, i16, ptr, %union.anon.34 }
%union.anon.33 = type { i32 }
%union.anon.34 = type { ptr }
%struct.GenContext_ = type { i8, ptr, ptr, ptr, ptr, ptr, ptr, ptr, ptr, ptr, ptr, ptr, ptr, ptr, ptr, ptr, ptr, ptr, ptr, ptr, ptr, ptr, ptr, ptr, ptr, ptr, ptr, ptr, ptr, ptr, ptr, ptr, ptr, %struct.anon.85, i32, i32, %struct.DebugContext, ptr, ptr, ptr, %struct.BEValue, i8, %union.SourceSpan, ptr, ptr, ptr, ptr }
%struct.anon.85 = type { ptr, ptr, ptr }
%struct.DebugContext = type { i16, ptr, ptr, %struct.DebugFile_, ptr, ptr, ptr, ptr }
%struct.DebugFile_ = type { i16, ptr }
%struct.Type_ = type { i32, ptr, ptr, ptr, %union.anon.101, ptr, ptr, %union.anon.103 }
%union.anon.101 = type { ptr }
%union.anon.103 = type { %struct.TypeFunction }
%struct.TypeFunction = type { ptr, ptr, ptr }
%struct.Decl_ = type { ptr, ptr, %union.SourceSpan, i64, %union.anon, i32, %union.anon.0, i64, ptr, ptr, ptr, %union.anon.1 }
%union.anon = type { ptr }
%union.anon.0 = type { i16 }
%union.anon.1 = type { %struct.FuncDecl }
%struct.FuncDecl = type { i32, [4 x i8], %struct.Signature_, i32, i32, %union.anon.8 }
%struct.Signature_ = type <{ %struct.CalleeAttributes, i16, i8, i32, i32, [4 x i8], ptr }>
%struct.CalleeAttributes = type { i8 }
%union.anon.8 = type { %struct.anon.9 }
%struct.anon.9 = type { i16, %union.anon.10 }
%union.anon.10 = type { ptr }
%struct.anon.2 = type { ptr, ptr, %union.anon.3 }
%union.anon.3 = type { %struct.BitStructDecl }
%struct.BitStructDecl = type { ptr, ptr, i8 }
%struct.TypeInfo_ = type { i16, ptr, %union.SourceSpan, %union.anon.56 }
%union.anon.56 = type { %struct.anon.57 }
%struct.anon.57 = type { ptr, ptr }

@intrinsic_id = external global %struct.LLVMIntrinsics, align 4
@.str = private unnamed_addr constant [36 x i8] c"FATAL ERROR %s -> in %s @ in %s:%d \00", align 1
@.str.2 = private unnamed_addr constant [122 x i8] c"generated/home/dtcxzyw/WorkSpace/Projects/compilers/llvm-opt-benchmark/bench/c3c/c3c/src/compiler/llvm_codegen_builtins.c\00", align 1
@.str.3 = private unnamed_addr constant [22 x i8] c"Should be unreachable\00", align 1
@__func__.llvm_intrinsic_by_type = private unnamed_addr constant [23 x i8] c"llvm_intrinsic_by_type\00", align 1
@__func__.type_flatten = private unnamed_addr constant [13 x i8] c"type_flatten\00", align 1
@.str.4 = private unnamed_addr constant [118 x i8] c"generated/home/dtcxzyw/WorkSpace/Projects/compilers/llvm-opt-benchmark/bench/c3c/c3c/src/compiler/compiler_internal.h\00", align 1

; Function Attrs: nounwind uwtable
define internal ptr @type_flatten(ptr noundef %0) #0 {
  %2 = alloca ptr, align 8
  store ptr %0, ptr %2, align 8
  br label %3

3:                                                ; preds = %28, %1
  %4 = load ptr, ptr %2, align 8
  %5 = getelementptr inbounds %struct.Type_, ptr %4, i32 0, i32 1
  %6 = load ptr, ptr %5, align 8
  store ptr %6, ptr %2, align 8
  %7 = load ptr, ptr %2, align 8
  %8 = getelementptr inbounds %struct.Type_, ptr %7, i32 0, i32 0
  %9 = load i32, ptr %8, align 8
  switch i32 %9, label %26 [
    i32 32, label %10
    i32 40, label %19
    i32 31, label %23
  ]

10:                                               ; preds = %3
  %11 = load ptr, ptr %2, align 8
  %12 = getelementptr inbounds %struct.Type_, ptr %11, i32 0, i32 7
  %13 = load ptr, ptr %12, align 8
  %14 = getelementptr inbounds %struct.Decl_, ptr %13, i32 0, i32 11
  %15 = getelementptr inbounds %struct.anon.2, ptr %14, i32 0, i32 2
  %16 = load ptr, ptr %15, align 8
  %17 = getelementptr inbounds %struct.TypeInfo_, ptr %16, i32 0, i32 1
  %18 = load ptr, ptr %17, align 8
  store ptr %18, ptr %2, align 8
  br label %28

19:                                               ; preds = %3
  %20 = load ptr, ptr %2, align 8
  %21 = getelementptr inbounds %struct.Type_, ptr %20, i32 0, i32 7
  %22 = load ptr, ptr %21, align 8
  store ptr %22, ptr %2, align 8
  br label %28

23:                                               ; preds = %3
  br label %24

24:                                               ; preds = %23
  call void (ptr, ...) @error_exit(ptr noundef @.str, ptr noundef @.str.3, ptr noundef @__func__.type_flatten, ptr noundef @.str.4, i32 noundef 2984) #9
  unreachable

25:                                               ; No predecessors!
  br label %26

26:                                               ; preds = %25, %3
  %27 = load ptr, ptr %2, align 8
  ret ptr %27

28:                                               ; preds = %19, %10
  br label %3
}

; Function Attrs: nounwind uwtable
define dso_local void @llvm_emit_abs_builtin(ptr noundef %0, ptr noundef %1, ptr noundef %2) #0 {
  %4 = alloca i32, align 4
  %5 = alloca ptr, align 8
  %6 = alloca i32, align 4
  %7 = alloca i32, align 4
  %8 = alloca i32, align 4
  %9 = alloca ptr, align 8
  %10 = alloca ptr, align 8
  %11 = alloca ptr, align 8
  %12 = alloca ptr, align 8
  %13 = alloca i32, align 4
  %14 = alloca %struct.BEValue, align 8
  %15 = alloca i32, align 4
  %16 = alloca ptr, align 8
  %17 = alloca ptr, align 8
  %18 = alloca ptr, align 8
  %19 = alloca ptr, align 8
  %20 = alloca [2 x ptr], align 16
  %21 = alloca i32, align 4
  %22 = alloca [1 x ptr], align 8
  %23 = alloca ptr, align 8
  store ptr %0, ptr %16, align 8
  store ptr %1, ptr %17, align 8
  store ptr %2, ptr %18, align 8
  %24 = load ptr, ptr %18, align 8
  %25 = getelementptr inbounds %struct.Expr_, ptr %24, i32 0, i32 3
  %26 = getelementptr inbounds %struct.ExprCall, ptr %25, i32 0, i32 3
  %27 = load ptr, ptr %26, align 8
  store ptr %27, ptr %19, align 8
  %28 = load ptr, ptr %16, align 8
  %29 = load ptr, ptr %19, align 8
  %30 = getelementptr inbounds [2 x ptr], ptr %20, i64 0, i64 0
  store ptr %28, ptr %10, align 8
  store ptr %29, ptr %11, align 8
  store ptr %30, ptr %12, align 8
  store i32 1, ptr %13, align 4
  store i32 0, ptr %15, align 4
  br label %31

31:                                               ; preds = %35, %3
  %32 = load i32, ptr %15, align 4
  %33 = load i32, ptr %13, align 4
  %34 = icmp ult i32 %32, %33
  br i1 %34, label %35, label %51

35:                                               ; preds = %31
  %36 = load ptr, ptr %10, align 8
  %37 = load ptr, ptr %11, align 8
  %38 = load i32, ptr %15, align 4
  %39 = zext i32 %38 to i64
  %40 = getelementptr inbounds ptr, ptr %37, i64 %39
  %41 = load ptr, ptr %40, align 8
  call void @llvm_emit_expr(ptr noundef %36, ptr noundef %14, ptr noundef %41) #6
  %42 = load ptr, ptr %10, align 8
  call void @llvm_value_rvalue(ptr noundef %42, ptr noundef %14) #6
  %43 = getelementptr inbounds %struct.BEValue, ptr %14, i32 0, i32 3
  %44 = load ptr, ptr %43, align 8
  %45 = load ptr, ptr %12, align 8
  %46 = load i32, ptr %15, align 4
  %47 = zext i32 %46 to i64
  %48 = getelementptr inbounds ptr, ptr %45, i64 %47
  store ptr %44, ptr %48, align 8
  %49 = load i32, ptr %15, align 4
  %50 = add i32 %49, 1
  store i32 %50, ptr %15, align 4
  br label %31, !llvm.loop !13

51:                                               ; preds = %31
  %52 = load ptr, ptr %19, align 8
  %53 = getelementptr inbounds ptr, ptr %52, i64 0
  %54 = load ptr, ptr %53, align 8
  %55 = getelementptr inbounds %struct.Expr_, ptr %54, i32 0, i32 0
  %56 = load ptr, ptr %55, align 8
  %57 = load i32, ptr @intrinsic_id, align 4
  %58 = load i32, ptr @intrinsic_id, align 4
  %59 = load i32, ptr getelementptr inbounds (%struct.LLVMIntrinsics, ptr @intrinsic_id, i32 0, i32 16), align 4
  store ptr %56, ptr %5, align 8
  store i32 %57, ptr %6, align 4
  store i32 %58, ptr %7, align 4
  store i32 %59, ptr %8, align 4
  %60 = load ptr, ptr %5, align 8
  %61 = call ptr @type_flatten(ptr noundef %60)
  store ptr %61, ptr %5, align 8
  br label %62

62:                                               ; preds = %71, %51
  %63 = load ptr, ptr %5, align 8
  %64 = load i32, ptr %63, align 8
  switch i32 %64, label %75 [
    i32 3, label %65
    i32 4, label %65
    i32 5, label %65
    i32 6, label %65
    i32 7, label %65
    i32 2, label %67
    i32 8, label %67
    i32 9, label %67
    i32 10, label %67
    i32 11, label %67
    i32 12, label %67
    i32 14, label %69
    i32 13, label %69
    i32 15, label %69
    i32 16, label %69
    i32 17, label %69
    i32 37, label %71
  ]

65:                                               ; preds = %62, %62, %62, %62, %62
  %66 = load i32, ptr %6, align 4
  store i32 %66, ptr %4, align 4
  br label %76

67:                                               ; preds = %62, %62, %62, %62, %62, %62
  %68 = load i32, ptr %7, align 4
  store i32 %68, ptr %4, align 4
  br label %76

69:                                               ; preds = %62, %62, %62, %62, %62
  %70 = load i32, ptr %8, align 4
  store i32 %70, ptr %4, align 4
  br label %76

71:                                               ; preds = %62
  %72 = load ptr, ptr %5, align 8
  %73 = getelementptr inbounds %struct.Type_, ptr %72, i32 0, i32 7
  %74 = load ptr, ptr %73, align 8
  store ptr %74, ptr %5, align 8
  br label %62

75:                                               ; preds = %62
  call void (ptr, ...) @error_exit(ptr noundef @.str, ptr noundef @.str.3, ptr noundef @__func__.llvm_intrinsic_by_type, ptr noundef @.str.2, i32 noundef 349) #7
  unreachable

76:                                               ; preds = %69, %67, %65
  %77 = load i32, ptr %4, align 4
  store i32 %77, ptr %21, align 4
  %78 = getelementptr inbounds [1 x ptr], ptr %22, i64 0, i64 0
  %79 = getelementptr inbounds [2 x ptr], ptr %20, i64 0, i64 0
  %80 = load ptr, ptr %79, align 16
  %81 = call ptr @LLVMTypeOf(ptr noundef %80)
  store ptr %81, ptr %78, align 8
  %82 = load i32, ptr %21, align 4
  %83 = load i32, ptr @intrinsic_id, align 4
  %84 = icmp eq i32 %82, %83
  br i1 %84, label %85, label %97

85:                                               ; preds = %76
  %86 = load ptr, ptr %16, align 8
  %87 = getelementptr inbounds %struct.GenContext_, ptr %86, i32 0, i32 20
  %88 = load ptr, ptr %87, align 8
  store ptr %88, ptr %9, align 8
  %89 = load ptr, ptr %9, align 8
  %90 = call ptr @LLVMConstNull(ptr noundef %89) #6
  %91 = getelementptr inbounds [2 x ptr], ptr %20, i64 0, i64 1
  store ptr %90, ptr %91, align 8
  %92 = load ptr, ptr %16, align 8
  %93 = load i32, ptr %21, align 4
  %94 = getelementptr inbounds [1 x ptr], ptr %22, i64 0, i64 0
  %95 = getelementptr inbounds [2 x ptr], ptr %20, i64 0, i64 0
  %96 = call ptr @llvm_emit_call_intrinsic(ptr noundef %92, i32 noundef %93, ptr noundef %94, i32 noundef 1, ptr noundef %95, i32 noundef 2)
  store ptr %96, ptr %23, align 8
  br label %103

97:                                               ; preds = %76
  %98 = load ptr, ptr %16, align 8
  %99 = load i32, ptr %21, align 4
  %100 = getelementptr inbounds [1 x ptr], ptr %22, i64 0, i64 0
  %101 = getelementptr inbounds [2 x ptr], ptr %20, i64 0, i64 0
  %102 = call ptr @llvm_emit_call_intrinsic(ptr noundef %98, i32 noundef %99, ptr noundef %100, i32 noundef 1, ptr noundef %101, i32 noundef 1)
  store ptr %102, ptr %23, align 8
  br label %103

103:                                              ; preds = %97, %85
  %104 = load ptr, ptr %17, align 8
  %105 = load ptr, ptr %23, align 8
  %106 = load ptr, ptr %18, align 8
  %107 = getelementptr inbounds %struct.Expr_, ptr %106, i32 0, i32 0
  %108 = load ptr, ptr %107, align 8
  call void @llvm_value_set(ptr noundef %104, ptr noundef %105, ptr noundef %108)
  ret void
}