; Function Attrs: nounwind uwtable
define dso_local void @llvm_emit_abs_builtin(ptr noundef %0, ptr noundef %1, ptr nocapture noundef readonly %2) local_unnamed_addr #0 {
.critedge:
  %3 = alloca %struct.BEValue, align 8
  %4 = alloca [2 x ptr], align 16
  %5 = alloca [1 x ptr], align 8
  %6 = getelementptr inbounds i8, ptr %2, i64 40
  %7 = load ptr, ptr %6, align 8
  %8 = load ptr, ptr %7, align 8
  call void @llvm_emit_expr(ptr noundef %0, ptr noundef nonnull %3, ptr noundef %8) #8
  call void @llvm_value_rvalue(ptr noundef %0, ptr noundef nonnull %3) #8
  %9 = getelementptr inbounds i8, ptr %3, i64 16
  %10 = load ptr, ptr %9, align 8
  store ptr %10, ptr %4, align 16
  %11 = load ptr, ptr %7, align 8
  %12 = load i32, ptr @intrinsic_id, align 4
  %13 = load i32, ptr getelementptr inbounds (%struct.LLVMIntrinsics, ptr @intrinsic_id, i64 0, i32 16), align 4
  br label %14

14:                                               ; preds = %.backedge, %.critedge
  %.0.i.in = phi ptr [ %11, %.critedge ], [ %.0.i.in.be, %.backedge ]
  %.0.i = load ptr, ptr %.0.i.in, align 8
  %15 = getelementptr inbounds i8, ptr %.0.i, i64 8
  %16 = load ptr, ptr %15, align 8
  %17 = load i32, ptr %16, align 8
  switch i32 %17, label %type_flatten.exit [
    i32 32, label %18
    i32 40, label %24
    i32 31, label %26
  ]

18:                                               ; preds = %14
  %19 = getelementptr inbounds i8, ptr %16, i64 56
  %20 = load ptr, ptr %19, align 8
  %21 = getelementptr inbounds i8, ptr %20, i64 96
  %22 = load ptr, ptr %21, align 8
  %23 = getelementptr inbounds i8, ptr %22, i64 8
  br label %.backedge

24:                                               ; preds = %14
  %25 = getelementptr inbounds i8, ptr %16, i64 56
  br label %.backedge

.backedge:                                        ; preds = %24, %18
  %.0.i.in.be = phi ptr [ %25, %24 ], [ %23, %18 ]
  br label %14

26:                                               ; preds = %14
  call void (ptr, ...) @error_exit(ptr noundef nonnull @.str, ptr noundef nonnull @.str.3, ptr noundef nonnull @__func__.type_flatten, ptr noundef nonnull @.str.4, i32 noundef 2984) #9
  unreachable

type_flatten.exit:                                ; preds = %14, %28
  %27 = phi i32 [ %.pr, %28 ], [ %17, %14 ]
  %.030 = phi ptr [ %30, %28 ], [ %16, %14 ]
  switch i32 %27, label %31 [
    i32 3, label %.loopexit.loopexit
    i32 4, label %.loopexit.loopexit
    i32 5, label %.loopexit.loopexit
    i32 6, label %.loopexit.loopexit
    i32 7, label %.loopexit.loopexit
    i32 2, label %.loopexit.loopexit
    i32 8, label %.loopexit.loopexit
    i32 9, label %.loopexit.loopexit
    i32 10, label %.loopexit.loopexit
    i32 11, label %.loopexit.loopexit
    i32 12, label %.loopexit.loopexit
    i32 14, label %.loopexit
    i32 13, label %.loopexit
    i32 15, label %.loopexit
    i32 16, label %.loopexit
    i32 17, label %.loopexit
    i32 37, label %28
  ]

28:                                               ; preds = %type_flatten.exit
  %29 = getelementptr inbounds i8, ptr %.030, i64 56
  %30 = load ptr, ptr %29, align 8
  %.pr = load i32, ptr %30, align 8
  br label %type_flatten.exit

31:                                               ; preds = %type_flatten.exit
  call void (ptr, ...) @error_exit(ptr noundef nonnull @.str, ptr noundef nonnull @.str.3, ptr noundef nonnull @__func__.llvm_intrinsic_by_type, ptr noundef nonnull @.str.2, i32 noundef 349) #9
  unreachable

.loopexit.loopexit:                               ; preds = %type_flatten.exit, %type_flatten.exit, %type_flatten.exit, %type_flatten.exit, %type_flatten.exit, %type_flatten.exit, %type_flatten.exit, %type_flatten.exit, %type_flatten.exit, %type_flatten.exit, %type_flatten.exit
  br label %.loopexit

.loopexit:                                        ; preds = %type_flatten.exit, %type_flatten.exit, %type_flatten.exit, %type_flatten.exit, %type_flatten.exit, %.loopexit.loopexit
  %.029 = phi i32 [ %12, %.loopexit.loopexit ], [ %13, %type_flatten.exit ], [ %13, %type_flatten.exit ], [ %13, %type_flatten.exit ], [ %13, %type_flatten.exit ], [ %13, %type_flatten.exit ]
  %32 = call ptr @LLVMTypeOf(ptr noundef %10) #8
  store ptr %32, ptr %5, align 8
  %33 = load i32, ptr @intrinsic_id, align 4
  %34 = icmp eq i32 %.029, %33
  br i1 %34, label %35, label %40

35:                                               ; preds = %.loopexit
  %36 = getelementptr inbounds i8, ptr %0, i64 160
  %37 = load ptr, ptr %36, align 8
  %38 = call ptr @LLVMConstNull(ptr noundef %37) #8
  %39 = getelementptr inbounds i8, ptr %4, i64 8
  store ptr %38, ptr %39, align 8
  br label %40

40:                                               ; preds = %.loopexit, %35
  %.sink = phi i32 [ 2, %35 ], [ 1, %.loopexit ]
  %41 = call ptr @llvm_emit_call_intrinsic(ptr noundef %0, i32 noundef %.029, ptr noundef nonnull %5, i32 noundef 1, ptr noundef nonnull %4, i32 noundef %.sink) #8
  %42 = load ptr, ptr %2, align 8
  call void @llvm_value_set(ptr noundef %1, ptr noundef %41, ptr noundef %42) #8
  ret void
}